target datalayout = "e-m:e-p270:32:32-p271:32:32-p272:64:64-i64:64-i128:128-f80:128-n8:16:32:64-S128"
target triple = "x86_64-pc-linux-gnu"

%struct.PartitionMap = type { i32, ptr, ptr, i8, ptr }

; Function Attrs: nounwind uwtable
define internal i32 @merge_matching_partitions(ptr noundef %0, ptr noundef %1, i32 noundef %2, i32 noundef %3, ptr noundef %4) #0 {
  %6 = alloca i32, align 4
  %7 = alloca ptr, align 8
  %8 = alloca ptr, align 8
  %9 = alloca i32, align 4
  %10 = alloca i32, align 4
  %11 = alloca ptr, align 8
  %12 = alloca i32, align 4
  %13 = alloca i32, align 4
  %14 = alloca i8, align 1
  %15 = alloca i8, align 1
  %16 = alloca i32, align 4
  %17 = alloca i32, align 4
  store ptr %0, ptr %7, align 8
  store ptr %1, ptr %8, align 8
  store i32 %2, ptr %9, align 4
  store i32 %3, ptr %10, align 4
  store ptr %4, ptr %11, align 8
  call void @llvm.lifetime.start.p0(i64 4, ptr %12) #9
  call void @llvm.lifetime.start.p0(i64 4, ptr %13) #9
  call void @llvm.lifetime.start.p0(i64 1, ptr %14) #9
  call void @llvm.lifetime.start.p0(i64 1, ptr %15) #9
  %18 = load ptr, ptr %7, align 8
  %19 = getelementptr inbounds nuw %struct.PartitionMap, ptr %18, i32 0, i32 1
  %20 = load ptr, ptr %19, align 8
  %21 = load i32, ptr %9, align 4
  %22 = sext i32 %21 to i64
  %23 = getelementptr inbounds i32, ptr %20, i64 %22
  %24 = load i32, ptr %23, align 4
  store i32 %24, ptr %12, align 4
  %25 = load ptr, ptr %7, align 8
  %26 = getelementptr inbounds nuw %struct.PartitionMap, ptr %25, i32 0, i32 2
  %27 = load ptr, ptr %26, align 8
  %28 = load i32, ptr %9, align 4
  %29 = sext i32 %28 to i64
  %30 = getelementptr inbounds i8, ptr %27, i64 %29
  %31 = load i8, ptr %30, align 1, !range !6, !noundef !7
  %32 = trunc i8 %31 to i1
  %33 = zext i1 %32 to i8
  store i8 %33, ptr %14, align 1
  %34 = load ptr, ptr %8, align 8
  %35 = getelementptr inbounds nuw %struct.PartitionMap, ptr %34, i32 0, i32 1
  %36 = load ptr, ptr %35, align 8
  %37 = load i32, ptr %10, align 4
  %38 = sext i32 %37 to i64
  %39 = getelementptr inbounds i32, ptr %36, i64 %38
  %40 = load i32, ptr %39, align 4
  store i32 %40, ptr %13, align 4
  %41 = load ptr, ptr %8, align 8
  %42 = getelementptr inbounds nuw %struct.PartitionMap, ptr %41, i32 0, i32 2
  %43 = load ptr, ptr %42, align 8
  %44 = load i32, ptr %10, align 4
  %45 = sext i32 %44 to i64
  %46 = getelementptr inbounds i8, ptr %43, i64 %45
  %47 = load i8, ptr %46, align 1, !range !6, !noundef !7
  %48 = trunc i8 %47 to i1
  %49 = zext i1 %48 to i8
  store i8 %49, ptr %15, align 1
  %50 = load i32, ptr %12, align 4
  %51 = icmp sge i32 %50, 0
  br i1 %51, label %52, label %132

52:                                               ; preds = %5
  %53 = load i32, ptr %13, align 4
  %54 = icmp sge i32 %53, 0
  br i1 %54, label %55, label %132

55:                                               ; preds = %52
  %56 = load i32, ptr %12, align 4
  %57 = load i32, ptr %13, align 4
  %58 = icmp eq i32 %56, %57
  br i1 %58, label %59, label %61

59:                                               ; preds = %55
  %60 = load i32, ptr %12, align 4
  store i32 %60, ptr %6, align 4
  store i32 1, ptr %16, align 4
  br label %239

61:                                               ; preds = %55
  %62 = load i8, ptr %14, align 1, !range !6, !noundef !7
  %63 = trunc i8 %62 to i1
  br i1 %63, label %131, label %64

64:                                               ; preds = %61
  %65 = load i8, ptr %15, align 1, !range !6, !noundef !7
  %66 = trunc i8 %65 to i1
  br i1 %66, label %131, label %67

67:                                               ; preds = %64
  %68 = load i32, ptr %12, align 4
  %69 = load i32, ptr %13, align 4
  %70 = icmp slt i32 %68, %69
  br i1 %70, label %71, label %101

71:                                               ; preds = %67
  %72 = load ptr, ptr %7, align 8
  %73 = getelementptr inbounds nuw %struct.PartitionMap, ptr %72, i32 0, i32 2
  %74 = load ptr, ptr %73, align 8
  %75 = load i32, ptr %9, align 4
  %76 = sext i32 %75 to i64
  %77 = getelementptr inbounds i8, ptr %74, i64 %76
  store i8 1, ptr %77, align 1
  %78 = load i32, ptr %12, align 4
  %79 = load ptr, ptr %8, align 8
  %80 = getelementptr inbounds nuw %struct.PartitionMap, ptr %79, i32 0, i32 1
  %81 = load ptr, ptr %80, align 8
  %82 = load i32, ptr %10, align 4
  %83 = sext i32 %82 to i64
  %84 = getelementptr inbounds i32, ptr %81, i64 %83
  store i32 %78, ptr %84, align 4
  %85 = load ptr, ptr %8, align 8
  %86 = getelementptr inbounds nuw %struct.PartitionMap, ptr %85, i32 0, i32 2
  %87 = load ptr, ptr %86, align 8
  %88 = load i32, ptr %10, align 4
  %89 = sext i32 %88 to i64
  %90 = getelementptr inbounds i8, ptr %87, i64 %89
  store i8 1, ptr %90, align 1
  %91 = load ptr, ptr %8, align 8
  %92 = getelementptr inbounds nuw %struct.PartitionMap, ptr %91, i32 0, i32 3
  store i8 1, ptr %92, align 8
  %93 = load i32, ptr %13, align 4
  %94 = load ptr, ptr %8, align 8
  %95 = getelementptr inbounds nuw %struct.PartitionMap, ptr %94, i32 0, i32 4
  %96 = load ptr, ptr %95, align 8
  %97 = load i32, ptr %10, align 4
  %98 = sext i32 %97 to i64
  %99 = getelementptr inbounds i32, ptr %96, i64 %98
  store i32 %93, ptr %99, align 4
  %100 = load i32, ptr %12, align 4
  store i32 %100, ptr %6, align 4
  store i32 1, ptr %16, align 4
  br label %239

101:                                              ; preds = %67
  %102 = load ptr, ptr %8, align 8
  %103 = getelementptr inbounds nuw %struct.PartitionMap, ptr %102, i32 0, i32 2
  %104 = load ptr, ptr %103, align 8
  %105 = load i32, ptr %10, align 4
  %106 = sext i32 %105 to i64
  %107 = getelementptr inbounds i8, ptr %104, i64 %106
  store i8 1, ptr %107, align 1
  %108 = load i32, ptr %13, align 4
  %109 = load ptr, ptr %7, align 8
  %110 = getelementptr inbounds nuw %struct.PartitionMap, ptr %109, i32 0, i32 1
  %111 = load ptr, ptr %110, align 8
  %112 = load i32, ptr %9, align 4
  %113 = sext i32 %112 to i64
  %114 = getelementptr inbounds i32, ptr %111, i64 %113
  store i32 %108, ptr %114, align 4
  %115 = load ptr, ptr %7, align 8
  %116 = getelementptr inbounds nuw %struct.PartitionMap, ptr %115, i32 0, i32 2
  %117 = load ptr, ptr %116, align 8
  %118 = load i32, ptr %9, align 4
  %119 = sext i32 %118 to i64
  %120 = getelementptr inbounds i8, ptr %117, i64 %119
  store i8 1, ptr %120, align 1
  %121 = load ptr, ptr %7, align 8
  %122 = getelementptr inbounds nuw %struct.PartitionMap, ptr %121, i32 0, i32 3
  store i8 1, ptr %122, align 8
  %123 = load i32, ptr %12, align 4
  %124 = load ptr, ptr %7, align 8
  %125 = getelementptr inbounds nuw %struct.PartitionMap, ptr %124, i32 0, i32 4
  %126 = load ptr, ptr %125, align 8
  %127 = load i32, ptr %9, align 4
  %128 = sext i32 %127 to i64
  %129 = getelementptr inbounds i32, ptr %126, i64 %128
  store i32 %123, ptr %129, align 4
  %130 = load i32, ptr %13, align 4
  store i32 %130, ptr %6, align 4
  store i32 1, ptr %16, align 4
  br label %239

131:                                              ; preds = %64, %61
  store i32 -1, ptr %6, align 4
  store i32 1, ptr %16, align 4
  br label %239

132:                                              ; preds = %52, %5
  %133 = load i32, ptr %12, align 4
  %134 = icmp eq i32 %133, -1
  br i1 %134, label %135, label %172

135:                                              ; preds = %132
  %136 = load i32, ptr %13, align 4
  %137 = icmp eq i32 %136, -1
  br i1 %137, label %138, label %172

138:                                              ; preds = %135
  call void @llvm.lifetime.start.p0(i64 4, ptr %17) #9
  %139 = load ptr, ptr %11, align 8
  %140 = load i32, ptr %139, align 4
  store i32 %140, ptr %17, align 4
  %141 = load i32, ptr %17, align 4
  %142 = load ptr, ptr %7, align 8
  %143 = getelementptr inbounds nuw %struct.PartitionMap, ptr %142, i32 0, i32 1
  %144 = load ptr, ptr %143, align 8
  %145 = load i32, ptr %9, align 4
  %146 = sext i32 %145 to i64
  %147 = getelementptr inbounds i32, ptr %144, i64 %146
  store i32 %141, ptr %147, align 4
  %148 = load ptr, ptr %7, align 8
  %149 = getelementptr inbounds nuw %struct.PartitionMap, ptr %148, i32 0, i32 2
  %150 = load ptr, ptr %149, align 8
  %151 = load i32, ptr %9, align 4
  %152 = sext i32 %151 to i64
  %153 = getelementptr inbounds i8, ptr %150, i64 %152
  store i8 1, ptr %153, align 1
  %154 = load i32, ptr %17, align 4
  %155 = load ptr, ptr %8, align 8
  %156 = getelementptr inbounds nuw %struct.PartitionMap, ptr %155, i32 0, i32 1
  %157 = load ptr, ptr %156, align 8
  %158 = load i32, ptr %10, align 4
  %159 = sext i32 %158 to i64
  %160 = getelementptr inbounds i32, ptr %157, i64 %159
  store i32 %154, ptr %160, align 4
  %161 = load ptr, ptr %8, align 8
  %162 = getelementptr inbounds nuw %struct.PartitionMap, ptr %161, i32 0, i32 2
  %163 = load ptr, ptr %162, align 8
  %164 = load i32, ptr %10, align 4
  %165 = sext i32 %164 to i64
  %166 = getelementptr inbounds i8, ptr %163, i64 %165
  store i8 1, ptr %166, align 1
  %167 = load ptr, ptr %11, align 8
  %168 = load i32, ptr %167, align 4
  %169 = add i32 %168, 1
  %170 = load ptr, ptr %11, align 8
  store i32 %169, ptr %170, align 4
  %171 = load i32, ptr %17, align 4
  store i32 %171, ptr %6, align 4
  store i32 1, ptr %16, align 4
  call void @llvm.lifetime.end.p0(i64 4, ptr %17) #9
  br label %239

172:                                              ; preds = %135, %132
  %173 = load i32, ptr %12, align 4
  %174 = icmp sge i32 %173, 0
  br i1 %174, label %175, label %205

175:                                              ; preds = %172
  %176 = load ptr, ptr %7, align 8
  %177 = getelementptr inbounds nuw %struct.PartitionMap, ptr %176, i32 0, i32 2
  %178 = load ptr, ptr %177, align 8
  %179 = load i32, ptr %9, align 4
  %180 = sext i32 %179 to i64
  %181 = getelementptr inbounds i8, ptr %178, i64 %180
  %182 = load i8, ptr %181, align 1, !range !6, !noundef !7
  %183 = trunc i8 %182 to i1
  br i1 %183, label %205, label %184

184:                                              ; preds = %175
  %185 = load i32, ptr %12, align 4
  %186 = load ptr, ptr %8, align 8
  %187 = getelementptr inbounds nuw %struct.PartitionMap, ptr %186, i32 0, i32 1
  %188 = load ptr, ptr %187, align 8
  %189 = load i32, ptr %10, align 4
  %190 = sext i32 %189 to i64
  %191 = getelementptr inbounds i32, ptr %188, i64 %190
  store i32 %185, ptr %191, align 4
  %192 = load ptr, ptr %8, align 8
  %193 = getelementptr inbounds nuw %struct.PartitionMap, ptr %192, i32 0, i32 2
  %194 = load ptr, ptr %193, align 8
  %195 = load i32, ptr %10, align 4
  %196 = sext i32 %195 to i64
  %197 = getelementptr inbounds i8, ptr %194, i64 %196
  store i8 1, ptr %197, align 1
  %198 = load ptr, ptr %7, align 8
  %199 = getelementptr inbounds nuw %struct.PartitionMap, ptr %198, i32 0, i32 2
  %200 = load ptr, ptr %199, align 8
  %201 = load i32, ptr %9, align 4
  %202 = sext i32 %201 to i64
  %203 = getelementptr inbounds i8, ptr %200, i64 %202
  store i8 1, ptr %203, align 1
  %204 = load i32, ptr %12, align 4
  store i32 %204, ptr %6, align 4
  store i32 1, ptr %16, align 4
  br label %239

205:                                              ; preds = %175, %172
  %206 = load i32, ptr %13, align 4
  %207 = icmp sge i32 %206, 0
  br i1 %207, label %208, label %238

208:                                              ; preds = %205
  %209 = load ptr, ptr %8, align 8
  %210 = getelementptr inbounds nuw %struct.PartitionMap, ptr %209, i32 0, i32 2
  %211 = load ptr, ptr %210, align 8
  %212 = load i32, ptr %10, align 4
  %213 = sext i32 %212 to i64
  %214 = getelementptr inbounds i8, ptr %211, i64 %213
  %215 = load i8, ptr %214, align 1, !range !6, !noundef !7
  %216 = trunc i8 %215 to i1
  br i1 %216, label %238, label %217

217:                                              ; preds = %208
  %218 = load i32, ptr %13, align 4
  %219 = load ptr, ptr %7, align 8
  %220 = getelementptr inbounds nuw %struct.PartitionMap, ptr %219, i32 0, i32 1
  %221 = load ptr, ptr %220, align 8
  %222 = load i32, ptr %9, align 4
  %223 = sext i32 %222 to i64
  %224 = getelementptr inbounds i32, ptr %221, i64 %223
  store i32 %218, ptr %224, align 4
  %225 = load ptr, ptr %7, align 8
  %226 = getelementptr inbounds nuw %struct.PartitionMap, ptr %225, i32 0, i32 2
  %227 = load ptr, ptr %226, align 8
  %228 = load i32, ptr %9, align 4
  %229 = sext i32 %228 to i64
  %230 = getelementptr inbounds i8, ptr %227, i64 %229
  store i8 1, ptr %230, align 1
  %231 = load ptr, ptr %8, align 8
  %232 = getelementptr inbounds nuw %struct.PartitionMap, ptr %231, i32 0, i32 2
  %233 = load ptr, ptr %232, align 8
  %234 = load i32, ptr %10, align 4
  %235 = sext i32 %234 to i64
  %236 = getelementptr inbounds i8, ptr %233, i64 %235
  store i8 1, ptr %236, align 1
  %237 = load i32, ptr %13, align 4
  store i32 %237, ptr %6, align 4
  store i32 1, ptr %16, align 4
  br label %239

238:                                              ; preds = %208, %205
  store i32 -1, ptr %6, align 4
  store i32 1, ptr %16, align 4
  br label %239

239:                                              ; preds = %238, %217, %184, %138, %131, %101, %71, %59
  call void @llvm.lifetime.end.p0(i64 1, ptr %15) #9
  call void @llvm.lifetime.end.p0(i64 1, ptr %14) #9
  call void @llvm.lifetime.end.p0(i64 4, ptr %13) #9
  call void @llvm.lifetime.end.p0(i64 4, ptr %12) #9
  %240 = load i32, ptr %6, align 4
  ret i32 %240
}