; Function Attrs: mustprogress nofree norecurse nosync nounwind willreturn memory(readwrite, inaccessiblemem: none) uwtable
define internal fastcc i32 @merge_matching_partitions(ptr noundef nonnull captures(none) %0, ptr noundef nonnull captures(none) %1, i32 noundef %2, i32 noundef %3, ptr noundef nonnull captures(none) %4) unnamed_addr #8 {
  %6 = getelementptr inbounds nuw i8, ptr %0, i64 8
  %7 = load ptr, ptr %6, align 8
  %8 = sext i32 %2 to i64
  %9 = getelementptr inbounds i32, ptr %7, i64 %8
  %10 = load i32, ptr %9, align 4
  %11 = getelementptr inbounds nuw i8, ptr %0, i64 16
  %12 = load ptr, ptr %11, align 8
  %13 = getelementptr inbounds i8, ptr %12, i64 %8
  %14 = load i8, ptr %13, align 1, !range !6, !noundef !7
  %15 = trunc nuw i8 %14 to i1
  %16 = getelementptr inbounds nuw i8, ptr %1, i64 8
  %17 = load ptr, ptr %16, align 8
  %18 = sext i32 %3 to i64
  %19 = getelementptr inbounds i32, ptr %17, i64 %18
  %20 = load i32, ptr %19, align 4
  %21 = getelementptr inbounds nuw i8, ptr %1, i64 16
  %22 = load ptr, ptr %21, align 8
  %23 = getelementptr inbounds i8, ptr %22, i64 %18
  %24 = load i8, ptr %23, align 1, !range !6, !noundef !7
  %25 = trunc nuw i8 %24 to i1
  %26 = icmp sgt i32 %10, -1
  %27 = icmp sgt i32 %20, -1
  %or.cond = select i1 %26, i1 %27, i1 false
  br i1 %or.cond, label %28, label %51

28:                                               ; preds = %5
  %29 = icmp eq i32 %10, %20
  br i1 %29, label %76, label %30

30:                                               ; preds = %28
  %brmerge = select i1 %15, i1 true, i1 %25
  br i1 %brmerge, label %76, label %31

31:                                               ; preds = %30
  %32 = icmp samesign ult i32 %10, %20
  br i1 %32, label %33, label %42

33:                                               ; preds = %31
  store i8 1, ptr %13, align 1
  %34 = load ptr, ptr %16, align 8
  %35 = getelementptr inbounds i32, ptr %34, i64 %18
  store i32 %10, ptr %35, align 4
  %36 = load ptr, ptr %21, align 8
  %37 = getelementptr inbounds i8, ptr %36, i64 %18
  store i8 1, ptr %37, align 1
  %38 = getelementptr inbounds nuw i8, ptr %1, i64 24
  store i8 1, ptr %38, align 8
  %39 = getelementptr inbounds nuw i8, ptr %1, i64 32
  %40 = load ptr, ptr %39, align 8
  %41 = getelementptr inbounds i32, ptr %40, i64 %18
  store i32 %20, ptr %41, align 4
  br label %76

42:                                               ; preds = %31
  store i8 1, ptr %23, align 1
  %43 = load ptr, ptr %6, align 8
  %44 = getelementptr inbounds i32, ptr %43, i64 %8
  store i32 %20, ptr %44, align 4
  %45 = load ptr, ptr %11, align 8
  %46 = getelementptr inbounds i8, ptr %45, i64 %8
  store i8 1, ptr %46, align 1
  %47 = getelementptr inbounds nuw i8, ptr %0, i64 24
  store i8 1, ptr %47, align 8
  %48 = getelementptr inbounds nuw i8, ptr %0, i64 32
  %49 = load ptr, ptr %48, align 8
  %50 = getelementptr inbounds i32, ptr %49, i64 %8
  store i32 %10, ptr %50, align 4
  br label %76

51:                                               ; preds = %5
  %52 = icmp eq i32 %10, -1
  %53 = icmp eq i32 %20, -1
  %or.cond3 = select i1 %52, i1 %53, i1 false
  br i1 %or.cond3, label %54, label %64

54:                                               ; preds = %51
  %55 = load i32, ptr %4, align 4
  store i32 %55, ptr %9, align 4
  %56 = load ptr, ptr %11, align 8
  %57 = getelementptr inbounds i8, ptr %56, i64 %8
  store i8 1, ptr %57, align 1
  %58 = load ptr, ptr %16, align 8
  %59 = getelementptr inbounds i32, ptr %58, i64 %18
  store i32 %55, ptr %59, align 4
  %60 = load ptr, ptr %21, align 8
  %61 = getelementptr inbounds i8, ptr %60, i64 %18
  store i8 1, ptr %61, align 1
  %62 = load i32, ptr %4, align 4
  %63 = add i32 %62, 1
  store i32 %63, ptr %4, align 4
  br label %76

64:                                               ; preds = %51
  %.not = xor i1 %26, true
  %brmerge84 = select i1 %.not, i1 true, i1 %15
  br i1 %brmerge84, label %70, label %65

65:                                               ; preds = %64
  store i32 %10, ptr %19, align 4
  %66 = load ptr, ptr %21, align 8
  %67 = getelementptr inbounds i8, ptr %66, i64 %18
  store i8 1, ptr %67, align 1
  %68 = load ptr, ptr %11, align 8
  %69 = getelementptr inbounds i8, ptr %68, i64 %8
  store i8 1, ptr %69, align 1
  br label %76

70:                                               ; preds = %64
  %.not85 = xor i1 %27, true
  %brmerge86 = select i1 %.not85, i1 true, i1 %25
  br i1 %brmerge86, label %76, label %71

71:                                               ; preds = %70
  store i32 %20, ptr %9, align 4
  %72 = load ptr, ptr %11, align 8
  %73 = getelementptr inbounds i8, ptr %72, i64 %8
  store i8 1, ptr %73, align 1
  %74 = load ptr, ptr %21, align 8
  %75 = getelementptr inbounds i8, ptr %74, i64 %18
  store i8 1, ptr %75, align 1
  br label %76

76:                                               ; preds = %70, %30, %28, %71, %65, %54, %42, %33
  %.0 = phi i32 [ %10, %33 ], [ %20, %42 ], [ %55, %54 ], [ %20, %71 ], [ %10, %65 ], [ %10, %28 ], [ -1, %30 ], [ -1, %70 ]
  ret i32 %.0
}